; Function Attrs: mustprogress nounwind uwtable
define void @_ZN7Minisat10SimpSolverD2Ev(ptr noundef nonnull align 8 dereferenceable(1196) %0) unnamed_addr #0 align 2 personality ptr @__gxx_personality_v0 {
  store ptr getelementptr inbounds ({ [5 x ptr] }, ptr @_ZTVN7Minisat10SimpSolverE, i64 0, i32 0, i64 2), ptr %0, align 8
  %2 = getelementptr inbounds i8, ptr %0, i64 1160
  %3 = load ptr, ptr %2, align 8
  %.not.i.i.i.i = icmp eq ptr %3, null
  br i1 %.not.i.i.i.i, label %_ZN7Minisat4VMapIcED2Ev.exit, label %.preheader.i.i.i.i

.preheader.i.i.i.i:                               ; preds = %1
  %4 = getelementptr inbounds i8, ptr %0, i64 1168
  store i32 0, ptr %4, align 8
  tail call void @free(ptr noundef nonnull %3) #23
  store ptr null, ptr %2, align 8
  %5 = getelementptr inbounds i8, ptr %0, i64 1172
  store i32 0, ptr %5, align 4
  br label %_ZN7Minisat4VMapIcED2Ev.exit

_ZN7Minisat4VMapIcED2Ev.exit:                     ; preds = %1, %.preheader.i.i.i.i
  %6 = getelementptr inbounds i8, ptr %0, i64 1144
  %7 = load ptr, ptr %6, align 8
  %.not.i.i = icmp eq ptr %7, null
  br i1 %.not.i.i, label %_ZN7Minisat3vecIiiED2Ev.exit, label %.preheader.i.i

.preheader.i.i:                                   ; preds = %_ZN7Minisat4VMapIcED2Ev.exit
  %8 = getelementptr inbounds i8, ptr %0, i64 1152
  store i32 0, ptr %8, align 8
  tail call void @free(ptr noundef nonnull %7) #23
  store ptr null, ptr %6, align 8
  %9 = getelementptr inbounds i8, ptr %0, i64 1156
  store i32 0, ptr %9, align 4
  br label %_ZN7Minisat3vecIiiED2Ev.exit

_ZN7Minisat3vecIiiED2Ev.exit:                     ; preds = %_ZN7Minisat4VMapIcED2Ev.exit, %.preheader.i.i
  %10 = getelementptr inbounds i8, ptr %0, i64 1120
  %11 = load ptr, ptr %10, align 8
  %.not.i.i.i.i1 = icmp eq ptr %11, null
  br i1 %.not.i.i.i.i1, label %_ZN7Minisat4VMapIcED2Ev.exit3, label %.preheader.i.i.i.i2

.preheader.i.i.i.i2:                              ; preds = %_ZN7Minisat3vecIiiED2Ev.exit
  %12 = getelementptr inbounds i8, ptr %0, i64 1128
  store i32 0, ptr %12, align 8
  tail call void @free(ptr noundef nonnull %11) #23
  store ptr null, ptr %10, align 8
  %13 = getelementptr inbounds i8, ptr %0, i64 1132
  store i32 0, ptr %13, align 4
  br label %_ZN7Minisat4VMapIcED2Ev.exit3

_ZN7Minisat4VMapIcED2Ev.exit3:                    ; preds = %_ZN7Minisat3vecIiiED2Ev.exit, %.preheader.i.i.i.i2
  %14 = getelementptr inbounds i8, ptr %0, i64 1096
  %15 = load ptr, ptr %14, align 8
  %.not.i.i.i = icmp eq ptr %15, null
  br i1 %.not.i.i.i, label %_ZN7Minisat5QueueIjED2Ev.exit, label %.preheader.i.i.i

.preheader.i.i.i:                                 ; preds = %_ZN7Minisat4VMapIcED2Ev.exit3
  %16 = getelementptr inbounds i8, ptr %0, i64 1104
  store i32 0, ptr %16, align 8
  tail call void @free(ptr noundef nonnull %15) #23
  store ptr null, ptr %14, align 8
  %17 = getelementptr inbounds i8, ptr %0, i64 1108
  store i32 0, ptr %17, align 4
  br label %_ZN7Minisat5QueueIjED2Ev.exit

_ZN7Minisat5QueueIjED2Ev.exit:                    ; preds = %_ZN7Minisat4VMapIcED2Ev.exit3, %.preheader.i.i.i
  %18 = getelementptr inbounds i8, ptr %0, i64 1048
  %19 = getelementptr inbounds i8, ptr %0, i64 1064
  %20 = load ptr, ptr %19, align 8
  %.not.i.i.i.i4 = icmp eq ptr %20, null
  br i1 %.not.i.i.i.i4, label %_ZN7Minisat6IntMapIiiNS_14MkIndexDefaultIiEEED2Ev.exit.i, label %.preheader.i.i.i.i5

.preheader.i.i.i.i5:                              ; preds = %_ZN7Minisat5QueueIjED2Ev.exit
  %21 = getelementptr inbounds i8, ptr %0, i64 1072
  store i32 0, ptr %21, align 8
  tail call void @free(ptr noundef nonnull %20) #23
  store ptr null, ptr %19, align 8
  %22 = getelementptr inbounds i8, ptr %0, i64 1076
  store i32 0, ptr %22, align 4
  br label %_ZN7Minisat6IntMapIiiNS_14MkIndexDefaultIiEEED2Ev.exit.i

_ZN7Minisat6IntMapIiiNS_14MkIndexDefaultIiEEED2Ev.exit.i: ; preds = %.preheader.i.i.i.i5, %_ZN7Minisat5QueueIjED2Ev.exit
  %23 = load ptr, ptr %18, align 8
  %.not.i.i.i6 = icmp eq ptr %23, null
  br i1 %.not.i.i.i6, label %_ZN7Minisat4HeapIiNS_10SimpSolver6ElimLtENS_14MkIndexDefaultIiEEED2Ev.exit, label %.preheader.i.i.i7

.preheader.i.i.i7:                                ; preds = %_ZN7Minisat6IntMapIiiNS_14MkIndexDefaultIiEEED2Ev.exit.i
  %24 = getelementptr inbounds i8, ptr %0, i64 1056
  store i32 0, ptr %24, align 8
  tail call void @free(ptr noundef nonnull %23) #23
  store ptr null, ptr %18, align 8
  %25 = getelementptr inbounds i8, ptr %0, i64 1060
  store i32 0, ptr %25, align 4
  br label %_ZN7Minisat4HeapIiNS_10SimpSolver6ElimLtENS_14MkIndexDefaultIiEEED2Ev.exit

_ZN7Minisat4HeapIiNS_10SimpSolver6ElimLtENS_14MkIndexDefaultIiEEED2Ev.exit: ; preds = %_ZN7Minisat6IntMapIiiNS_14MkIndexDefaultIiEEED2Ev.exit.i, %.preheader.i.i.i7
  %26 = getelementptr inbounds i8, ptr %0, i64 1024
  %27 = load ptr, ptr %26, align 8
  %.not.i.i.i.i8 = icmp eq ptr %27, null
  br i1 %.not.i.i.i.i8, label %_ZN7Minisat4LMapIiED2Ev.exit, label %.preheader.i.i.i.i9

.preheader.i.i.i.i9:                              ; preds = %_ZN7Minisat4HeapIiNS_10SimpSolver6ElimLtENS_14MkIndexDefaultIiEEED2Ev.exit
  %28 = getelementptr inbounds i8, ptr %0, i64 1032
  store i32 0, ptr %28, align 8
  tail call void @free(ptr noundef nonnull %27) #23
  store ptr null, ptr %26, align 8
  %29 = getelementptr inbounds i8, ptr %0, i64 1036
  store i32 0, ptr %29, align 4
  br label %_ZN7Minisat4LMapIiED2Ev.exit

_ZN7Minisat4LMapIiED2Ev.exit:                     ; preds = %_ZN7Minisat4HeapIiNS_10SimpSolver6ElimLtENS_14MkIndexDefaultIiEEED2Ev.exit, %.preheader.i.i.i.i9
  %30 = getelementptr inbounds i8, ptr %0, i64 952
  tail call void @_ZN7Minisat8OccListsIiNS_3vecIjiEENS_10SimpSolver13ClauseDeletedENS_14MkIndexDefaultIiEEED2Ev(ptr noundef nonnull align 8 dereferenceable(72) %30) #23
  %31 = getelementptr inbounds i8, ptr %0, i64 928
  %32 = load ptr, ptr %31, align 8
  %.not.i.i.i.i10 = icmp eq ptr %32, null
  br i1 %.not.i.i.i.i10, label %_ZN7Minisat4VMapIcED2Ev.exit12, label %.preheader.i.i.i.i11

.preheader.i.i.i.i11:                             ; preds = %_ZN7Minisat4LMapIiED2Ev.exit
  %33 = getelementptr inbounds i8, ptr %0, i64 936
  store i32 0, ptr %33, align 8
  tail call void @free(ptr noundef nonnull %32) #23
  store ptr null, ptr %31, align 8
  %34 = getelementptr inbounds i8, ptr %0, i64 940
  store i32 0, ptr %34, align 4
  br label %_ZN7Minisat4VMapIcED2Ev.exit12

_ZN7Minisat4VMapIcED2Ev.exit12:                   ; preds = %_ZN7Minisat4LMapIiED2Ev.exit, %.preheader.i.i.i.i11
  %35 = getelementptr inbounds i8, ptr %0, i64 912
  %36 = load ptr, ptr %35, align 8
  %.not.i.i13 = icmp eq ptr %36, null
  br i1 %.not.i.i13, label %_ZN7Minisat3vecIjiED2Ev.exit, label %.preheader.i.i14

.preheader.i.i14:                                 ; preds = %_ZN7Minisat4VMapIcED2Ev.exit12
  %37 = getelementptr inbounds i8, ptr %0, i64 920
  store i32 0, ptr %37, align 8
  tail call void @free(ptr noundef nonnull %36) #23
  store ptr null, ptr %35, align 8
  %38 = getelementptr inbounds i8, ptr %0, i64 924
  store i32 0, ptr %38, align 4
  br label %_ZN7Minisat3vecIjiED2Ev.exit

_ZN7Minisat3vecIjiED2Ev.exit:                     ; preds = %_ZN7Minisat4VMapIcED2Ev.exit12, %.preheader.i.i14
  tail call void @_ZN7Minisat6SolverD2Ev(ptr noundef nonnull align 8 dereferenceable(857) %0) #23
  ret void
}